; Function Attrs: mustprogress nofree norecurse nosync nounwind willreturn memory(read, inaccessiblemem: none) uwtable
define hidden noundef i64 @_ZNKSt4hashIN4cvc58internal19RealAlgebraicNumberEEclERKS2_(ptr noundef nonnull readnone align 1 captures(none) dereferenceable(1) %0, ptr noundef nonnull readonly align 8 captures(none) dereferenceable(32) %1) local_unnamed_addr #10 align 2 {
  %3 = getelementptr inbounds nuw i8, ptr %1, i64 4
  %4 = load i32, ptr %3, align 4, !tbaa !3
  %.not.i.i.i = icmp eq i32 %4, 0
  br i1 %.not.i.i.i, label %_ZN4cvc58internal9gmpz_hashEPK12__mpz_struct.exit.i.i, label %__gmpz_getlimbn.exit.lr.ph.i.i.i

__gmpz_getlimbn.exit.lr.ph.i.i.i:                 ; preds = %2
  %5 = getelementptr inbounds nuw i8, ptr %1, i64 8
  %6 = load ptr, ptr %5, align 8, !tbaa !36
  %smax.i.i.i = tail call i32 @llvm.abs.i32(i32 %4, i1 false)
  %wide.trip.count.i.i.i = zext i32 %smax.i.i.i to i64
  br label %__gmpz_getlimbn.exit.i.i.i

__gmpz_getlimbn.exit.i.i.i:                       ; preds = %__gmpz_getlimbn.exit.i.i.i, %__gmpz_getlimbn.exit.lr.ph.i.i.i
  %indvars.iv.i.i.i = phi i64 [ 0, %__gmpz_getlimbn.exit.lr.ph.i.i.i ], [ %indvars.iv.next.i.i.i, %__gmpz_getlimbn.exit.i.i.i ]
  %.011.i.i.i = phi i64 [ 0, %__gmpz_getlimbn.exit.lr.ph.i.i.i ], [ %10, %__gmpz_getlimbn.exit.i.i.i ]
  %7 = getelementptr inbounds nuw i64, ptr %6, i64 %indvars.iv.i.i.i
  %8 = load i64, ptr %7, align 8, !tbaa !37
  %9 = shl i64 %.011.i.i.i, 1
  %10 = xor i64 %8, %9
  %indvars.iv.next.i.i.i = add nuw nsw i64 %indvars.iv.i.i.i, 1
  %exitcond.not.i.i.i = icmp eq i64 %indvars.iv.next.i.i.i, %wide.trip.count.i.i.i
  br i1 %exitcond.not.i.i.i, label %_ZN4cvc58internal9gmpz_hashEPK12__mpz_struct.exit.i.i, label %__gmpz_getlimbn.exit.i.i.i, !llvm.loop !38

_ZN4cvc58internal9gmpz_hashEPK12__mpz_struct.exit.i.i: ; preds = %__gmpz_getlimbn.exit.i.i.i, %2
  %.0.lcssa.i.i.i = phi i64 [ 0, %2 ], [ %10, %__gmpz_getlimbn.exit.i.i.i ]
  %11 = getelementptr inbounds nuw i8, ptr %1, i64 20
  %12 = load i32, ptr %11, align 4, !tbaa !3
  %.not.i2.i.i = icmp eq i32 %12, 0
  br i1 %.not.i2.i.i, label %_ZNK4cvc58internal19RealAlgebraicNumber4hashEv.exit, label %__gmpz_getlimbn.exit.lr.ph.i3.i.i

__gmpz_getlimbn.exit.lr.ph.i3.i.i:                ; preds = %_ZN4cvc58internal9gmpz_hashEPK12__mpz_struct.exit.i.i
  %13 = getelementptr inbounds nuw i8, ptr %1, i64 24
  %14 = load ptr, ptr %13, align 8, !tbaa !36
  %smax.i4.i.i = tail call i32 @llvm.abs.i32(i32 %12, i1 false)
  %wide.trip.count.i5.i.i = zext i32 %smax.i4.i.i to i64
  br label %__gmpz_getlimbn.exit.i6.i.i

__gmpz_getlimbn.exit.i6.i.i:                      ; preds = %__gmpz_getlimbn.exit.i6.i.i, %__gmpz_getlimbn.exit.lr.ph.i3.i.i
  %indvars.iv.i7.i.i = phi i64 [ 0, %__gmpz_getlimbn.exit.lr.ph.i3.i.i ], [ %indvars.iv.next.i9.i.i, %__gmpz_getlimbn.exit.i6.i.i ]
  %.011.i8.i.i = phi i64 [ 0, %__gmpz_getlimbn.exit.lr.ph.i3.i.i ], [ %18, %__gmpz_getlimbn.exit.i6.i.i ]
  %15 = getelementptr inbounds nuw i64, ptr %14, i64 %indvars.iv.i7.i.i
  %16 = load i64, ptr %15, align 8, !tbaa !37
  %17 = shl i64 %.011.i8.i.i, 1
  %18 = xor i64 %16, %17
  %indvars.iv.next.i9.i.i = add nuw nsw i64 %indvars.iv.i7.i.i, 1
  %exitcond.not.i10.i.i = icmp eq i64 %indvars.iv.next.i9.i.i, %wide.trip.count.i5.i.i
  br i1 %exitcond.not.i10.i.i, label %_ZNK4cvc58internal19RealAlgebraicNumber4hashEv.exit, label %__gmpz_getlimbn.exit.i6.i.i, !llvm.loop !38

_ZNK4cvc58internal19RealAlgebraicNumber4hashEv.exit: ; preds = %__gmpz_getlimbn.exit.i6.i.i, %_ZN4cvc58internal9gmpz_hashEPK12__mpz_struct.exit.i.i
  %.0.lcssa.i11.i.i = phi i64 [ 0, %_ZN4cvc58internal9gmpz_hashEPK12__mpz_struct.exit.i.i ], [ %18, %__gmpz_getlimbn.exit.i6.i.i ]
  %19 = xor i64 %.0.lcssa.i11.i.i, %.0.lcssa.i.i.i
  ret i64 %19
}